target datalayout = "e-m:e-p270:32:32-p271:32:32-p272:64:64-i64:64-i128:128-f80:128-n8:16:32:64-S128"
target triple = "x86_64-pc-linux-gnu"

%"class.cv::Range" = type { i32, i32 }

; Function Attrs: inlinehint mustprogress nounwind uwtable
define linkonce_odr hidden void @_ZN2cv5RangeC2Eii(ptr noundef nonnull align 4 dereferenceable(8) %0, i32 noundef %1, i32 noundef %2) unnamed_addr #10 comdat align 2 {
  %4 = alloca ptr, align 8
  %5 = alloca i32, align 4
  %6 = alloca i32, align 4
  store ptr %0, ptr %4, align 8, !tbaa !108
  store i32 %1, ptr %5, align 4, !tbaa !10
  store i32 %2, ptr %6, align 4, !tbaa !10
  %7 = load ptr, ptr %4, align 8
  %8 = getelementptr inbounds nuw %"class.cv::Range", ptr %7, i32 0, i32 0
  %9 = load i32, ptr %5, align 4, !tbaa !10
  store i32 %9, ptr %8, align 4, !tbaa !110
  %10 = getelementptr inbounds nuw %"class.cv::Range", ptr %7, i32 0, i32 1
  %11 = load i32, ptr %6, align 4, !tbaa !10
  store i32 %11, ptr %10, align 4, !tbaa !112
  ret void
}

; Function Attrs: inlinehint mustprogress nounwind uwtable
define linkonce_odr hidden noundef i32 @_ZNK2cv5Range4sizeEv(ptr noundef nonnull align 4 dereferenceable(8) %0) #10 comdat align 2 {
  %2 = alloca ptr, align 8
  store ptr %0, ptr %2, align 8, !tbaa !108
  %3 = load ptr, ptr %2, align 8
  %4 = getelementptr inbounds nuw %"class.cv::Range", ptr %3, i32 0, i32 1
  %5 = load i32, ptr %4, align 4, !tbaa !112
  %6 = getelementptr inbounds nuw %"class.cv::Range", ptr %3, i32 0, i32 0
  %7 = load i32, ptr %6, align 4, !tbaa !110
  %8 = sub nsw i32 %5, %7
  ret i32 %8
}

; Function Attrs: mustprogress uwtable
define hidden i64 @_ZN2cv8ximgproc11DTFilterCPU20getWorkRangeByThreadERKNS_5RangeES4_i(ptr noundef nonnull align 4 dereferenceable(8) %0, ptr noundef nonnull align 4 dereferenceable(8) %1, i32 noundef %2) #4 align 2 {
  %4 = alloca %"class.cv::Range", align 4
  %5 = alloca ptr, align 8
  %6 = alloca ptr, align 8
  %7 = alloca i32, align 4
  %8 = alloca i32, align 4
  %9 = alloca i32, align 4
  %10 = alloca i32, align 4
  store ptr %0, ptr %5, align 8, !tbaa !108
  store ptr %1, ptr %6, align 8, !tbaa !108
  store i32 %2, ptr %7, align 4, !tbaa !10
  %11 = load i32, ptr %7, align 4, !tbaa !10
  %12 = icmp sle i32 %11, 0
  br i1 %12, label %13, label %15

13:                                               ; preds = %3
  %14 = call noundef i32 @_ZN2cv13getNumThreadsEv()
  store i32 %14, ptr %7, align 4, !tbaa !10
  br label %15

15:                                               ; preds = %13, %3
  call void @llvm.lifetime.start.p0(i64 4, ptr %8) #3
  %16 = load ptr, ptr %5, align 8, !tbaa !108
  %17 = call noundef i32 @_ZNK2cv5Range4sizeEv(ptr noundef nonnull align 4 dereferenceable(8) %16)
  %18 = load i32, ptr %7, align 4, !tbaa !10
  %19 = sdiv i32 %17, %18
  store i32 %19, ptr %8, align 4, !tbaa !10
  call void @llvm.lifetime.start.p0(i64 4, ptr %9) #3
  %20 = load ptr, ptr %5, align 8, !tbaa !108
  %21 = getelementptr inbounds nuw %"class.cv::Range", ptr %20, i32 0, i32 0
  %22 = load i32, ptr %21, align 4, !tbaa !110
  %23 = load i32, ptr %8, align 4, !tbaa !10
  %24 = load ptr, ptr %6, align 8, !tbaa !108
  %25 = getelementptr inbounds nuw %"class.cv::Range", ptr %24, i32 0, i32 0
  %26 = load i32, ptr %25, align 4, !tbaa !110
  %27 = mul nsw i32 %23, %26
  %28 = add nsw i32 %22, %27
  store i32 %28, ptr %9, align 4, !tbaa !10
  call void @llvm.lifetime.start.p0(i64 4, ptr %10) #3
  %29 = load ptr, ptr %5, align 8, !tbaa !108
  %30 = getelementptr inbounds nuw %"class.cv::Range", ptr %29, i32 0, i32 0
  %31 = load i32, ptr %30, align 4, !tbaa !110
  %32 = load ptr, ptr %6, align 8, !tbaa !108
  %33 = getelementptr inbounds nuw %"class.cv::Range", ptr %32, i32 0, i32 1
  %34 = load i32, ptr %33, align 4, !tbaa !112
  %35 = load i32, ptr %7, align 4, !tbaa !10
  %36 = icmp sge i32 %34, %35
  br i1 %36, label %37, label %40

37:                                               ; preds = %15
  %38 = load ptr, ptr %5, align 8, !tbaa !108
  %39 = call noundef i32 @_ZNK2cv5Range4sizeEv(ptr noundef nonnull align 4 dereferenceable(8) %38)
  br label %46

40:                                               ; preds = %15
  %41 = load i32, ptr %8, align 4, !tbaa !10
  %42 = load ptr, ptr %6, align 8, !tbaa !108
  %43 = getelementptr inbounds nuw %"class.cv::Range", ptr %42, i32 0, i32 1
  %44 = load i32, ptr %43, align 4, !tbaa !112
  %45 = mul nsw i32 %41, %44
  br label %46

46:                                               ; preds = %40, %37
  %47 = phi i32 [ %39, %37 ], [ %45, %40 ]
  %48 = add nsw i32 %31, %47
  store i32 %48, ptr %10, align 4, !tbaa !10
  %49 = load i32, ptr %9, align 4, !tbaa !10
  %50 = load i32, ptr %10, align 4, !tbaa !10
  call void @_ZN2cv5RangeC2Eii(ptr noundef nonnull align 4 dereferenceable(8) %4, i32 noundef %49, i32 noundef %50)
  call void @llvm.lifetime.end.p0(i64 4, ptr %10) #3
  call void @llvm.lifetime.end.p0(i64 4, ptr %9) #3
  call void @llvm.lifetime.end.p0(i64 4, ptr %8) #3
  %51 = load i64, ptr %4, align 4
  ret i64 %51
}