; Function Attrs: mustprogress uwtable
define hidden i64 @_ZN2cv8ximgproc11DTFilterCPU20getWorkRangeByThreadERKNS_5RangeES4_i(ptr noundef nonnull readonly align 4 captures(none) dereferenceable(8) %0, ptr noundef nonnull readonly align 4 captures(none) dereferenceable(8) %1, i32 noundef %2) local_unnamed_addr #3 align 2 {
  %4 = icmp slt i32 %2, 1
  br i1 %4, label %5, label %7

5:                                                ; preds = %3
  %6 = tail call noundef i32 @_ZN2cv13getNumThreadsEv()
  br label %7

7:                                                ; preds = %5, %3
  %.0 = phi i32 [ %6, %5 ], [ %2, %3 ]
  %8 = getelementptr inbounds nuw i8, ptr %0, i64 4
  %9 = load i32, ptr %8, align 4, !tbaa !200
  %10 = load i32, ptr %0, align 4, !tbaa !198
  %11 = sub nsw i32 %9, %10
  %12 = sdiv i32 %11, %.0
  %13 = load i32, ptr %1, align 4, !tbaa !198
  %14 = getelementptr inbounds nuw i8, ptr %1, i64 4
  %15 = load i32, ptr %14, align 4, !tbaa !200
  %.not = icmp slt i32 %15, %.0
  %16 = mul nsw i32 %15, %12
  %spec.select = select i1 %.not, i32 %16, i32 %11
  %17 = mul nsw i32 %13, %12
  %18 = add nsw i32 %17, %10
  %19 = add nsw i32 %spec.select, %10
  %.sroa.2.0.insert.ext = zext i32 %19 to i64
  %.sroa.2.0.insert.shift = shl nuw i64 %.sroa.2.0.insert.ext, 32
  %.sroa.0.0.insert.ext = zext i32 %18 to i64
  %.sroa.0.0.insert.insert = or disjoint i64 %.sroa.2.0.insert.shift, %.sroa.0.0.insert.ext
  ret i64 %.sroa.0.0.insert.insert
}